; Function Attrs: mustprogress nounwind uwtable
define internal noundef i32 @"_ZNSt17_Function_handlerIFjN4llvm5APIntEEZNS0_13CSEMIRBuilder10buildInstrEjNS0_8ArrayRefINS0_5DstOpEEENS4_INS0_5SrcOpEEESt8optionalIjEE3$_1E9_M_invokeERKSt9_Any_dataOS1_"(ptr nocapture nonnull readnone align 8 %0, ptr nocapture noundef nonnull align 8 dereferenceable(12) %1) #1 align 2 {
  %3 = alloca %"class.llvm::APInt", align 8
  call void @llvm.lifetime.start.p0(i64 16, ptr nonnull %3)
  %4 = getelementptr inbounds nuw i8, ptr %3, i64 8
  %5 = getelementptr inbounds nuw i8, ptr %1, i64 8
  %6 = load i32, ptr %5, align 8
  store i32 %6, ptr %4, align 8
  %7 = load i64, ptr %1, align 8
  store i64 %7, ptr %3, align 8
  store i32 0, ptr %5, align 8
  %8 = icmp ult i32 %6, 65
  %9 = inttoptr i64 %7 to ptr
  br i1 %8, label %"_ZZN4llvm13CSEMIRBuilder10buildInstrEjNS_8ArrayRefINS_5DstOpEEENS1_INS_5SrcOpEEESt8optionalIjEENK3$_1clENS_5APIntE.exit.i.i", label %12

"_ZZN4llvm13CSEMIRBuilder10buildInstrEjNS_8ArrayRefINS_5DstOpEEENS1_INS_5SrcOpEEESt8optionalIjEENK3$_1clENS_5APIntE.exit.i.i": ; preds = %2
  %10 = tail call range(i64 0, 65) i64 @llvm.cttz.i64(i64 %7, i1 false)
  %11 = trunc nuw nsw i64 %10 to i32
  %..i.i.i.i.i = tail call i32 @llvm.umin.i32(i32 %6, i32 %11)
  br label %"_ZSt10__invoke_rIjRZN4llvm13CSEMIRBuilder10buildInstrEjNS0_8ArrayRefINS0_5DstOpEEENS2_INS0_5SrcOpEEESt8optionalIjEE3$_1JNS0_5APIntEEENSt9enable_ifIX16is_invocable_r_vIT_T0_DpT1_EESD_E4typeEOSE_DpOSF_.exit"

12:                                               ; preds = %2
  %13 = call noundef i32 @_ZNK4llvm5APInt26countTrailingZerosSlowCaseEv(ptr noundef nonnull readonly align 8 dereferenceable(12) %3) #19
  %14 = icmp eq i64 %7, 0
  br i1 %14, label %"_ZSt10__invoke_rIjRZN4llvm13CSEMIRBuilder10buildInstrEjNS0_8ArrayRefINS0_5DstOpEEENS2_INS0_5SrcOpEEESt8optionalIjEE3$_1JNS0_5APIntEEENSt9enable_ifIX16is_invocable_r_vIT_T0_DpT1_EESD_E4typeEOSE_DpOSF_.exit", label %15

15:                                               ; preds = %12
  tail call void @_ZdaPv(ptr noundef nonnull %9) #17
  br label %"_ZSt10__invoke_rIjRZN4llvm13CSEMIRBuilder10buildInstrEjNS0_8ArrayRefINS0_5DstOpEEENS2_INS0_5SrcOpEEESt8optionalIjEE3$_1JNS0_5APIntEEENSt9enable_ifIX16is_invocable_r_vIT_T0_DpT1_EESD_E4typeEOSE_DpOSF_.exit"

"_ZSt10__invoke_rIjRZN4llvm13CSEMIRBuilder10buildInstrEjNS0_8ArrayRefINS0_5DstOpEEENS2_INS0_5SrcOpEEESt8optionalIjEE3$_1JNS0_5APIntEEENSt9enable_ifIX16is_invocable_r_vIT_T0_DpT1_EESD_E4typeEOSE_DpOSF_.exit": ; preds = %"_ZZN4llvm13CSEMIRBuilder10buildInstrEjNS_8ArrayRefINS_5DstOpEEENS1_INS_5SrcOpEEESt8optionalIjEENK3$_1clENS_5APIntE.exit.i.i", %12, %15
  %.0.i.i.i2.i.i = phi i32 [ %..i.i.i.i.i, %"_ZZN4llvm13CSEMIRBuilder10buildInstrEjNS_8ArrayRefINS_5DstOpEEENS1_INS_5SrcOpEEESt8optionalIjEENK3$_1clENS_5APIntE.exit.i.i" ], [ %13, %12 ], [ %13, %15 ]
  call void @llvm.lifetime.end.p0(i64 16, ptr nonnull %3)
  ret i32 %.0.i.i.i2.i.i
}